target datalayout = "e-m:e-p270:32:32-p271:32:32-p272:64:64-i64:64-i128:128-f80:128-n8:16:32:64-S128"
target triple = "x86_64-pc-linux-gnu"

%struct.dt_pthread_mutex_t = type { %union.pthread_mutex_t }
%union.pthread_mutex_t = type { %struct.__pthread_mutex_s }
%struct.__pthread_mutex_s = type { i32, i32, i32, i32, i32, i16, i16, %struct.__pthread_internal_list }
%struct.__pthread_internal_list = type { ptr, ptr }
%struct.dt_iop_module_t = type { i32, ptr, ptr, ptr, ptr, ptr, ptr, ptr, ptr, ptr, ptr, ptr, ptr, ptr, ptr, ptr, ptr, ptr, ptr, ptr, ptr, ptr, ptr, ptr, ptr, ptr, ptr, ptr, ptr, ptr, ptr, ptr, ptr, ptr, ptr, ptr, ptr, ptr, ptr, ptr, ptr, ptr, ptr, ptr, ptr, ptr, ptr, ptr, ptr, ptr, ptr, ptr, ptr, ptr, ptr, ptr, ptr, [20 x i8], i32, i32, i32, i32, i32, i32, i32, [8 x i8], [4 x float], [4 x float], [4 x float], [4 x float], [4 x float], [4 x float], ptr, %struct.dt_dev_histogram_stats_t, [4 x i32], i32, i32, ptr, i32, i32, ptr, ptr, i32, ptr, %struct.dt_pthread_mutex_t, ptr, ptr, ptr, ptr, %struct.anon, ptr, ptr, ptr, ptr, ptr, ptr, ptr, i32, ptr, ptr, ptr, ptr, ptr, ptr, ptr, i32, ptr, i32, [128 x i8], i32, ptr, ptr, i32, [12 x i8] }
%struct.dt_dev_histogram_stats_t = type { i32, i64, i32, i32 }
%struct.anon = type { %struct.anon.0, %struct.anon.1 }
%struct.anon.0 = type { ptr, ptr }
%struct.anon.1 = type { ptr, i32 }
%struct.dt_iop_rgblevels_gui_data_t = type { %struct.dt_iop_rgblevels_params_t, ptr, ptr, ptr, ptr, ptr, ptr, i32, i32, float, float, float, float, [4 x float], i32, double, double, i32, i32, float, i32, float, ptr, ptr, ptr }
%struct.dt_iop_rgblevels_params_t = type { i32, i32, [3 x [3 x float]] }

; Function Attrs: nounwind uwtable
define i32 @mouse_moved(ptr noundef %0, float noundef %1, float noundef %2, double noundef %3, i32 noundef %4, float noundef %5) #0 {
  %7 = alloca ptr, align 8
  %8 = alloca float, align 4
  %9 = alloca float, align 4
  %10 = alloca double, align 8
  %11 = alloca i32, align 4
  %12 = alloca float, align 4
  %13 = alloca i32, align 4
  %14 = alloca ptr, align 8
  %15 = alloca float, align 4
  %16 = alloca float, align 4
  store ptr %0, ptr %7, align 8, !tbaa !6
  store float %1, ptr %8, align 4, !tbaa !15
  store float %2, ptr %9, align 4, !tbaa !15
  store double %3, ptr %10, align 8, !tbaa !17
  store i32 %4, ptr %11, align 4, !tbaa !19
  store float %5, ptr %12, align 4, !tbaa !15
  call void @llvm.lifetime.start.p0(i64 4, ptr %13) #13
  store i32 0, ptr %13, align 4, !tbaa !19
  call void @llvm.lifetime.start.p0(i64 8, ptr %14) #13
  %17 = load ptr, ptr %7, align 8, !tbaa !6
  %18 = getelementptr inbounds nuw %struct.dt_iop_module_t, ptr %17, i32 0, i32 83
  %19 = load ptr, ptr %18, align 16, !tbaa !21
  store ptr %19, ptr %14, align 8, !tbaa !37
  %20 = load ptr, ptr %14, align 8, !tbaa !37
  %21 = icmp ne ptr %20, null
  br i1 %21, label %22, label %52

22:                                               ; preds = %6
  %23 = load ptr, ptr %14, align 8, !tbaa !37
  %24 = getelementptr inbounds nuw %struct.dt_iop_rgblevels_gui_data_t, ptr %23, i32 0, i32 8
  %25 = load i32, ptr %24, align 4, !tbaa !39
  %26 = icmp ne i32 %25, 0
  br i1 %26, label %27, label %52

27:                                               ; preds = %22
  %28 = load ptr, ptr %14, align 8, !tbaa !37
  %29 = getelementptr inbounds nuw %struct.dt_iop_rgblevels_gui_data_t, ptr %28, i32 0, i32 14
  %30 = load i32, ptr %29, align 8, !tbaa !44
  %31 = icmp ne i32 %30, 0
  br i1 %31, label %32, label %52

32:                                               ; preds = %27
  %33 = load ptr, ptr %7, align 8, !tbaa !6
  %34 = getelementptr inbounds nuw %struct.dt_iop_module_t, ptr %33, i32 0, i32 78
  %35 = load i32, ptr %34, align 16, !tbaa !45
  %36 = icmp ne i32 %35, 0
  br i1 %36, label %37, label %52

37:                                               ; preds = %32
  call void @llvm.lifetime.start.p0(i64 4, ptr %15) #13
  call void @llvm.lifetime.start.p0(i64 4, ptr %16) #13
  %38 = load ptr, ptr %7, align 8, !tbaa !6
  %39 = getelementptr inbounds nuw %struct.dt_iop_module_t, ptr %38, i32 0, i32 77
  %40 = load ptr, ptr %39, align 8, !tbaa !46
  %41 = call i32 @dt_dev_get_preview_size(ptr noundef %40, ptr noundef %15, ptr noundef %16)
  %42 = load float, ptr %8, align 4, !tbaa !15
  %43 = load float, ptr %15, align 4, !tbaa !15
  %44 = fmul reassoc nsz arcp contract afn float %42, %43
  %45 = load ptr, ptr %14, align 8, !tbaa !37
  %46 = getelementptr inbounds nuw %struct.dt_iop_rgblevels_gui_data_t, ptr %45, i32 0, i32 10
  store float %44, ptr %46, align 4, !tbaa !47
  %47 = load float, ptr %9, align 4, !tbaa !15
  %48 = load float, ptr %16, align 4, !tbaa !15
  %49 = fmul reassoc nsz arcp contract afn float %47, %48
  %50 = load ptr, ptr %14, align 8, !tbaa !37
  %51 = getelementptr inbounds nuw %struct.dt_iop_rgblevels_gui_data_t, ptr %50, i32 0, i32 12
  store float %49, ptr %51, align 4, !tbaa !48
  call void (...) @dt_control_queue_redraw_center()
  store i32 1, ptr %13, align 4, !tbaa !19
  call void @llvm.lifetime.end.p0(i64 4, ptr %16) #13
  call void @llvm.lifetime.end.p0(i64 4, ptr %15) #13
  br label %52

52:                                               ; preds = %37, %32, %27, %22, %6
  %53 = load i32, ptr %13, align 4, !tbaa !19
  call void @llvm.lifetime.end.p0(i64 8, ptr %14) #13
  call void @llvm.lifetime.end.p0(i64 4, ptr %13) #13
  ret i32 %53
}