; Function Attrs: nounwind uwtable
define range(i32 0, 2) i32 @mouse_moved(ptr noundef readonly captures(none) %0, float noundef %1, float noundef %2, double noundef %3, i32 noundef %4, float noundef %5) local_unnamed_addr #1 {
  %7 = alloca float, align 4
  %8 = alloca float, align 4
  %9 = getelementptr inbounds nuw i8, ptr %0, i64 704
  %10 = load ptr, ptr %9, align 16, !tbaa !6
  %.not = icmp eq ptr %10, null
  br i1 %.not, label %30, label %11

11:                                               ; preds = %6
  %12 = getelementptr inbounds nuw i8, ptr %10, i64 100
  %13 = load i32, ptr %12, align 4, !tbaa !27
  %.not11 = icmp eq i32 %13, 0
  br i1 %.not11, label %30, label %14

14:                                               ; preds = %11
  %15 = getelementptr inbounds nuw i8, ptr %10, i64 136
  %16 = load i32, ptr %15, align 8, !tbaa !34
  %.not12 = icmp eq i32 %16, 0
  br i1 %.not12, label %30, label %17

17:                                               ; preds = %14
  %18 = getelementptr inbounds nuw i8, ptr %0, i64 672
  %19 = load i32, ptr %18, align 16, !tbaa !35
  %.not13 = icmp eq i32 %19, 0
  br i1 %.not13, label %30, label %20

20:                                               ; preds = %17
  call void @llvm.lifetime.start.p0(i64 4, ptr nonnull %7) #21
  call void @llvm.lifetime.start.p0(i64 4, ptr nonnull %8) #21
  %21 = getelementptr inbounds nuw i8, ptr %0, i64 664
  %22 = load ptr, ptr %21, align 8, !tbaa !36
  %23 = call i32 @dt_dev_get_preview_size(ptr noundef %22, ptr noundef nonnull %7, ptr noundef nonnull %8) #21
  %24 = load float, ptr %7, align 4, !tbaa !37
  %25 = fmul reassoc nsz arcp contract afn float %24, %1
  %26 = getelementptr inbounds nuw i8, ptr %10, i64 108
  store float %25, ptr %26, align 4, !tbaa !38
  %27 = load float, ptr %8, align 4, !tbaa !37
  %28 = fmul reassoc nsz arcp contract afn float %27, %2
  %29 = getelementptr inbounds nuw i8, ptr %10, i64 116
  store float %28, ptr %29, align 4, !tbaa !39
  call void (...) @dt_control_queue_redraw_center() #21
  call void @llvm.lifetime.end.p0(i64 4, ptr nonnull %8) #21
  call void @llvm.lifetime.end.p0(i64 4, ptr nonnull %7) #21
  br label %30

30:                                               ; preds = %20, %17, %14, %11, %6
  %.0 = phi i32 [ 1, %20 ], [ 0, %17 ], [ 0, %14 ], [ 0, %11 ], [ 0, %6 ]
  ret i32 %.0
}